; Function Attrs: nounwind uwtable
define hidden i32 @cmsIT8EnumPropertyMulti(ptr nocapture noundef %0, ptr noundef %1, ptr nocapture noundef writeonly %2) local_unnamed_addr #0 {
  %4 = getelementptr inbounds i8, ptr %0, i64 4
  %5 = load i32, ptr %4, align 4
  %6 = load i32, ptr %0, align 8
  %.not.i = icmp ult i32 %5, %6
  br i1 %.not.i, label %9, label %7

7:                                                ; preds = %3
  tail call void (ptr, ptr, ...) @SynError(ptr noundef nonnull %0, ptr noundef nonnull @.str.81, i32 noundef %5)
  %8 = getelementptr inbounds i8, ptr %0, i64 16
  br label %GetTable.exit

9:                                                ; preds = %3
  %10 = getelementptr inbounds i8, ptr %0, i64 16
  %11 = zext i32 %5 to i64
  %12 = getelementptr inbounds %struct._Table, ptr %10, i64 %11
  br label %GetTable.exit

GetTable.exit:                                    ; preds = %7, %9
  %.0.i = phi ptr [ %8, %7 ], [ %12, %9 ]
  %13 = getelementptr inbounds i8, ptr %.0.i, i64 1040
  %14 = load ptr, ptr %13, align 8
  %cond2941.i = icmp eq ptr %14, null
  br i1 %cond2941.i, label %IsAvailableOnList.exit.thread, label %.lr.ph.split.i.preheader

.lr.ph.split.i.preheader:                         ; preds = %GetTable.exit
  %15 = load i8, ptr %1, align 1
  %16 = icmp eq i8 %15, 35
  br i1 %16, label %IsAvailableOnList.exit.thread, label %.lr.ph.split.i

.lr.ph.split.ithread-pre-split:                   ; preds = %23
  %.pr = load i8, ptr %1, align 1
  br label %.lr.ph.split.i

.lr.ph.split.i:                                   ; preds = %.lr.ph.split.i.preheader, %.lr.ph.split.ithread-pre-split
  %17 = phi i8 [ %.pr, %.lr.ph.split.ithread-pre-split ], [ %15, %.lr.ph.split.i.preheader ]
  %.02130.i = phi ptr [ %24, %.lr.ph.split.ithread-pre-split ], [ %14, %.lr.ph.split.i.preheader ]
  %.not25.i = icmp eq i8 %17, 35
  br i1 %.not25.i, label %23, label %18

18:                                               ; preds = %.lr.ph.split.i
  %19 = getelementptr inbounds i8, ptr %.02130.i, i64 8
  %20 = load ptr, ptr %19, align 8
  %21 = tail call i32 @cmsstrcasecmp(ptr noundef nonnull %1, ptr noundef %20) #17
  %22 = icmp eq i32 %21, 0
  br i1 %22, label %IsAvailableOnList.exit, label %23

23:                                               ; preds = %18, %.lr.ph.split.i
  %24 = load ptr, ptr %.02130.i, align 8
  %cond.i = icmp eq ptr %24, null
  br i1 %cond.i, label %IsAvailableOnList.exit.thread, label %.lr.ph.split.ithread-pre-split, !llvm.loop !50

IsAvailableOnList.exit:                           ; preds = %18, %IsAvailableOnList.exit
  %.020.in.sroa.speculated41 = phi ptr [ %.020.in.sroa.speculate.load., %IsAvailableOnList.exit ], [ %.02130.i, %18 ]
  %.02140 = phi i32 [ %spec.select, %IsAvailableOnList.exit ], [ 0, %18 ]
  %25 = getelementptr inbounds i8, ptr %.020.in.sroa.speculated41, i64 24
  %26 = load ptr, ptr %25, align 8
  %.not28 = icmp ne ptr %26, null
  %27 = zext i1 %.not28 to i32
  %spec.select = add i32 %.02140, %27
  %28 = getelementptr inbounds i8, ptr %.020.in.sroa.speculated41, i64 16
  %.020.in.sroa.speculate.load. = load ptr, ptr %28, align 8
  %.not24 = icmp eq ptr %.020.in.sroa.speculate.load., null
  br i1 %.not24, label %29, label %IsAvailableOnList.exit, !llvm.loop !51

29:                                               ; preds = %IsAvailableOnList.exit
  %30 = shl i32 %spec.select, 3
  %31 = getelementptr inbounds i8, ptr %0, i64 271344
  %32 = getelementptr inbounds i8, ptr %0, i64 271352
  %33 = load i32, ptr %32, align 8
  %34 = getelementptr inbounds i8, ptr %0, i64 271356
  %35 = load i32, ptr %34, align 4
  %36 = sub i32 %33, %35
  %37 = icmp ugt i32 %30, %36
  br i1 %37, label %38, label %thread-pre-split.i

38:                                               ; preds = %29
  %39 = icmp eq i32 %33, 0
  %40 = shl i32 %33, 1
  %storemerge.i = select i1 %39, i32 20480, i32 %40
  %storemerge25.i = tail call i32 @llvm.umax.i32(i32 %storemerge.i, i32 %30)
  store i32 %storemerge25.i, ptr %32, align 8
  store i32 0, ptr %34, align 4
  %41 = getelementptr inbounds i8, ptr %0, i64 271736
  %42 = load ptr, ptr %41, align 8
  %43 = tail call ptr @_cmsMallocZero(ptr noundef %42, i32 noundef %storemerge25.i) #17
  %.not.i.i = icmp eq ptr %43, null
  br i1 %.not.i.i, label %AllocBigBlock.exit.i, label %44

44:                                               ; preds = %38
  %45 = load ptr, ptr %41, align 8
  %46 = tail call ptr @_cmsMallocZero(ptr noundef %45, i32 noundef 16) #17
  %47 = icmp eq ptr %46, null
  br i1 %47, label %48, label %50

48:                                               ; preds = %44
  %49 = load ptr, ptr %41, align 8
  tail call void @_cmsFree(ptr noundef %49, ptr noundef nonnull %43) #17
  br label %AllocBigBlock.exit.i

50:                                               ; preds = %44
  %51 = getelementptr inbounds i8, ptr %46, i64 8
  store ptr %43, ptr %51, align 8
  %52 = getelementptr inbounds i8, ptr %0, i64 271336
  %53 = load ptr, ptr %52, align 8
  store ptr %53, ptr %46, align 8
  store ptr %46, ptr %52, align 8
  br label %AllocBigBlock.exit.i

AllocBigBlock.exit.i:                             ; preds = %50, %48, %38
  %.0.i.i = phi ptr [ null, %48 ], [ %43, %50 ], [ null, %38 ]
  store ptr %.0.i.i, ptr %31, align 8
  br label %54

thread-pre-split.i:                               ; preds = %29
  %.pr.i = load ptr, ptr %31, align 8
  br label %54

54:                                               ; preds = %thread-pre-split.i, %AllocBigBlock.exit.i
  %55 = phi ptr [ %.pr.i, %thread-pre-split.i ], [ %.0.i.i, %AllocBigBlock.exit.i ]
  %56 = icmp eq ptr %55, null
  br i1 %56, label %IsAvailableOnList.exit.thread, label %AllocChunk.exit

AllocChunk.exit:                                  ; preds = %54
  %57 = load i32, ptr %34, align 4
  %58 = zext i32 %57 to i64
  %59 = getelementptr inbounds i8, ptr %55, i64 %58
  %60 = add i32 %57, %30
  store i32 %60, ptr %34, align 4
  %61 = getelementptr inbounds i8, ptr %.02130.i, i64 24
  br label %62

62:                                               ; preds = %AllocChunk.exit, %70
  %.1.in.sroa.speculated43 = phi ptr [ %.02130.i, %AllocChunk.exit ], [ %.1.in.sroa.speculate.load., %70 ]
  %.242 = phi i32 [ 0, %AllocChunk.exit ], [ %.3, %70 ]
  %63 = getelementptr inbounds i8, ptr %.1.in.sroa.speculated43, i64 24
  %64 = load ptr, ptr %63, align 8
  %.not27 = icmp eq ptr %64, null
  br i1 %.not27, label %70, label %65

65:                                               ; preds = %62
  %66 = load ptr, ptr %61, align 8
  %67 = add i32 %.242, 1
  %68 = zext i32 %.242 to i64
  %69 = getelementptr inbounds ptr, ptr %59, i64 %68
  store ptr %66, ptr %69, align 8
  br label %70

70:                                               ; preds = %62, %65
  %.3 = phi i32 [ %67, %65 ], [ %.242, %62 ]
  %71 = getelementptr inbounds i8, ptr %.1.in.sroa.speculated43, i64 16
  %.1.in.sroa.speculate.load. = load ptr, ptr %71, align 8
  %.not26 = icmp eq ptr %.1.in.sroa.speculate.load., null
  br i1 %.not26, label %IsAvailableOnList.exit.thread, label %62, !llvm.loop !52

IsAvailableOnList.exit.thread:                    ; preds = %23, %70, %.lr.ph.split.i.preheader, %54, %GetTable.exit
  %storemerge = phi ptr [ null, %GetTable.exit ], [ null, %54 ], [ null, %.lr.ph.split.i.preheader ], [ %59, %70 ], [ null, %23 ]
  %.0 = phi i32 [ 0, %GetTable.exit ], [ %spec.select, %54 ], [ 0, %.lr.ph.split.i.preheader ], [ %.3, %70 ], [ 0, %23 ]
  store ptr %storemerge, ptr %2, align 8
  ret i32 %.0
}